; Function Attrs: mustprogress uwtable
define void @_ZNK9grpc_core4Rbac9CidrRange8ToStringB5cxx11Ev(ptr dead_on_unwind noalias writable sret(%"class.std::__cxx11::basic_string") align 8 %0, ptr noundef nonnull align 8 dereferenceable(36) %1) local_unnamed_addr #5 align 2 personality ptr @__gxx_personality_v0 {
  %3 = alloca [2 x %"class.absl::lts_20240722::str_format_internal::FormatArgImpl"], align 8
  %4 = getelementptr inbounds nuw i8, ptr %1, i64 32
  call void @llvm.lifetime.start.p0(i64 32, ptr nonnull %3) #25, !noalias !94
  store ptr %1, ptr %3, align 8, !tbaa !13, !noalias !94
  %5 = getelementptr inbounds nuw i8, ptr %3, i64 8
  store ptr @_ZN4absl12lts_2024072219str_format_internal13FormatArgImpl8DispatchINSt7__cxx1112basic_stringIcSt11char_traitsIcESaIcEEEEEbNS2_4DataENS1_24FormatConversionSpecImplEPv, ptr %5, align 8, !tbaa !55, !noalias !94
  %6 = getelementptr inbounds nuw i8, ptr %3, i64 16
  %.sroa.0.0.copyload.i.i.i.i = load i32, ptr %4, align 8, !noalias !94
  %.sroa.0.0.insert.ext.i.i.i.i = zext i32 %.sroa.0.0.copyload.i.i.i.i to i64
  %7 = inttoptr i64 %.sroa.0.0.insert.ext.i.i.i.i to ptr
  store ptr %7, ptr %6, align 8, !tbaa !13, !noalias !94
  %8 = getelementptr inbounds nuw i8, ptr %3, i64 24
  store ptr @_ZN4absl12lts_2024072219str_format_internal13FormatArgImpl8DispatchIjEEbNS2_4DataENS1_24FormatConversionSpecImplEPv, ptr %8, align 8, !tbaa !55, !noalias !94
  call void @_ZN4absl12lts_2024072219str_format_internal10FormatPackB5cxx11ENS1_21UntypedFormatSpecImplENS0_4SpanIKNS1_13FormatArgImplEEE(ptr dead_on_unwind writable sret(%"class.std::__cxx11::basic_string") align 8 %0, ptr nonnull @.str.11, i64 42, ptr nonnull %3, i64 2)
  call void @llvm.lifetime.end.p0(i64 32, ptr nonnull %3) #25, !noalias !94
  ret void
}